target datalayout = "e-m:e-p270:32:32-p271:32:32-p272:64:64-i64:64-i128:128-f80:128-n8:16:32:64-S128"
target triple = "x86_64-pc-linux-gnu"

%struct.SDL_VideoDevice = type { ptr, ptr, ptr, ptr, ptr, ptr, ptr, ptr, ptr, ptr, ptr, ptr, ptr, ptr, ptr, ptr, ptr, ptr, ptr, ptr, ptr, ptr, ptr, ptr, ptr, ptr, ptr, ptr, ptr, ptr, ptr, ptr, ptr, ptr, ptr, ptr, ptr, ptr, ptr, ptr, ptr, ptr, ptr, ptr, ptr, ptr, ptr, ptr, ptr, ptr, ptr, ptr, ptr, ptr, ptr, ptr, ptr, ptr, ptr, ptr, ptr, ptr, ptr, ptr, ptr, ptr, ptr, ptr, ptr, ptr, ptr, ptr, ptr, ptr, ptr, ptr, ptr, ptr, ptr, ptr, ptr, ptr, ptr, ptr, ptr, ptr, ptr, ptr, ptr, ptr, ptr, ptr, ptr, ptr, ptr, ptr, ptr, i64, i8, i8, i8, ptr, i32, ptr, %struct.SDL_Rect, ptr, ptr, i32, ptr, ptr, ptr, ptr, i64, ptr, i8, i32, i32, %struct.anon, ptr, ptr, ptr, ptr, ptr, ptr, %struct.SDL_AtomicInt, %struct.SDL_AtomicInt, i8, %struct.anon.0, ptr, ptr, ptr, ptr, ptr }
%struct.SDL_Rect = type { i32, i32, i32, i32 }
%struct.anon = type { i32, i32, i32, i32, i32, i32, i32, i32, i32, i32, i32, i32, i32, i32, i32, i32, i32, i32, i32, i32, i32, i32, i32, i32, i32, i32, i32, i32, i32, [256 x i8], ptr }
%struct.SDL_AtomicInt = type { i32 }
%struct.anon.0 = type { ptr, ptr, i32, [256 x i8], ptr }
%struct.SDL_Window = type { i32, ptr, ptr, i32, i32, i32, i32, i32, i32, i32, i32, float, float, i32, i32, i64, i64, float, i8, i8, i32, i32, %struct.SDL_Rect, %struct.SDL_Rect, %struct.SDL_Rect, i8, i8, i8, %struct.SDL_DisplayMode, %struct.SDL_DisplayMode, %struct.SDL_HDROutputProperties, float, ptr, i8, i8, i8, i8, i8, i8, i8, i8, i8, i32, i32, i32, i32, %struct.SDL_Rect, i32, i8, %struct.SDL_Rect, i32, %struct.SDL_Rect, ptr, ptr, i32, float, i32, i32, ptr, ptr, ptr, ptr, ptr, ptr, ptr, ptr, ptr }
%struct.SDL_DisplayMode = type { i32, i32, i32, i32, float, float, i32, i32, ptr }
%struct.SDL_HDROutputProperties = type { float, float }
%struct.SDL_WindowData = type { ptr, i64, ptr, i64, i8, %struct.XShmSegmentInfo, ptr, ptr, ptr, i8, i32, i32, i32, i32, i8, i8, i8, i64, i32, i64, i8, %struct.SDL_Point, %struct.XConfigureEvent, %struct.XConfigureEvent, ptr, i64, i64, i64, i8, i64, ptr, i8, [4 x i64], %struct.SDL_Rect, i64, %struct._XSyncValue, i8, %struct.SDL_Rect, %struct.SDL_DisplayMode, i32, i32, i8, i8, i8, i8, i8, i8, i8, i8, i32, %struct.XPoint, ptr, ptr, i32, i32, i8 }
%struct.XShmSegmentInfo = type { i64, i32, ptr, i32 }
%struct.SDL_Point = type { i32, i32 }
%struct.XConfigureEvent = type { i32, i64, i32, ptr, i64, i64, i32, i32, i32, i32, i32, i64, i32 }
%struct._XSyncValue = type { i32, i32 }
%struct.XPoint = type { i16, i16 }
%struct.SDL_VideoData = type { ptr, ptr, i32, ptr, i64, i32, ptr, i32, i64, i64, %struct.X11_ClipboardData, %struct.X11_ClipboardData, ptr, i64, %struct.X11_SettingsData, i8, %struct.anon.1, [256 x i32], i8, i8, i8, i64, i8, %struct.SDL_Point, i32, ptr, i32, i8, i32, %struct.anon.2, i8, i64, ptr, ptr, i8, i8, i8 }
%struct.X11_ClipboardData = type { ptr, ptr, ptr, i64, i32 }
%struct.X11_SettingsData = type { ptr }
%struct.anon.1 = type { i64, i64, i64, i64, i64, i64, i64, i64, i64, i64, i64, i64, i64, i64, i64, i64, i64, i64, i64, i64, i64, i64, i64, i64, i64, i64, i64, i64, i64, i64, i64, i64, i64, i64, i64, i64, i64, i64, i64, i64, i64, i64, i64, i64, i64, i64, i64, i64, i64, i64, i64, i64, i64 }
%struct.anon.2 = type { ptr, i32, i32, i32, i16, i32, i32 }

@X11_XSync = external global ptr, align 8
@X11_XGrabPointer = external global ptr, align 8
@.str.1 = private unnamed_addr constant [31 x i8] c"X server refused mouse capture\00", align 1
@X11_XUngrabPointer = external global ptr, align 8

; Function Attrs: nounwind uwtable
define internal ptr @GetDisplay() #0 {
  %1 = call ptr @SDL_GetVideoDevice()
  %2 = getelementptr inbounds nuw %struct.SDL_VideoDevice, ptr %1, i32 0, i32 128
  %3 = load ptr, ptr %2, align 8
  %4 = getelementptr inbounds nuw %struct.SDL_VideoData, ptr %3, i32 0, i32 0
  %5 = load ptr, ptr %4, align 8
  ret ptr %5
}

; Function Attrs: nounwind uwtable
define internal zeroext i1 @X11_CaptureMouse(ptr noundef %0) #0 {
  %2 = alloca i1, align 1
  %3 = alloca ptr, align 8
  %4 = alloca ptr, align 8
  %5 = alloca ptr, align 8
  %6 = alloca ptr, align 8
  %7 = alloca i32, align 4
  %8 = alloca i64, align 8
  %9 = alloca i32, align 4
  %10 = alloca i32, align 4
  store ptr %0, ptr %3, align 8
  call void @llvm.lifetime.start.p0(i64 8, ptr %4) #6
  %11 = call ptr @GetDisplay()
  store ptr %11, ptr %4, align 8
  call void @llvm.lifetime.start.p0(i64 8, ptr %5) #6
  %12 = call ptr @SDL_GetMouseFocus_REAL()
  store ptr %12, ptr %5, align 8
  %13 = load ptr, ptr %3, align 8
  %14 = icmp ne ptr %13, null
  br i1 %14, label %15, label %69

15:                                               ; preds = %1
  call void @llvm.lifetime.start.p0(i64 8, ptr %6) #6
  %16 = load ptr, ptr %3, align 8
  %17 = getelementptr inbounds nuw %struct.SDL_Window, ptr %16, i32 0, i32 59
  %18 = load ptr, ptr %17, align 8
  store ptr %18, ptr %6, align 8
  %19 = load ptr, ptr %6, align 8
  %20 = getelementptr inbounds nuw %struct.SDL_WindowData, ptr %19, i32 0, i32 14
  %21 = load i8, ptr %20, align 4, !range !6, !noundef !7
  %22 = trunc i8 %21 to i1
  br i1 %22, label %23, label %28

23:                                               ; preds = %15
  %24 = load ptr, ptr %6, align 8
  %25 = getelementptr inbounds nuw %struct.SDL_WindowData, ptr %24, i32 0, i32 16
  %26 = load i8, ptr %25, align 2, !range !6, !noundef !7
  %27 = trunc i8 %26 to i1
  br i1 %27, label %28, label %65

28:                                               ; preds = %23, %15
  call void @llvm.lifetime.start.p0(i64 4, ptr %7) #6
  store i32 2097228, ptr %7, align 4
  call void @llvm.lifetime.start.p0(i64 8, ptr %8) #6
  %29 = load ptr, ptr %6, align 8
  %30 = getelementptr inbounds nuw %struct.SDL_WindowData, ptr %29, i32 0, i32 16
  %31 = load i8, ptr %30, align 2, !range !6, !noundef !7
  %32 = trunc i8 %31 to i1
  br i1 %32, label %33, label %37

33:                                               ; preds = %28
  %34 = load ptr, ptr %6, align 8
  %35 = getelementptr inbounds nuw %struct.SDL_WindowData, ptr %34, i32 0, i32 1
  %36 = load i64, ptr %35, align 8
  br label %38

37:                                               ; preds = %28
  br label %38

38:                                               ; preds = %37, %33
  %39 = phi i64 [ %36, %33 ], [ 0, %37 ]
  store i64 %39, ptr %8, align 8
  call void @llvm.lifetime.start.p0(i64 4, ptr %9) #6
  %40 = load ptr, ptr @X11_XGrabPointer, align 8
  %41 = load ptr, ptr %4, align 8
  %42 = load ptr, ptr %6, align 8
  %43 = getelementptr inbounds nuw %struct.SDL_WindowData, ptr %42, i32 0, i32 1
  %44 = load i64, ptr %43, align 8
  %45 = load i64, ptr %8, align 8
  %46 = call i32 %40(ptr noundef %41, i64 noundef %44, i32 noundef 0, i32 noundef 2097228, i32 noundef 1, i32 noundef 1, i64 noundef %45, i64 noundef 0, i64 noundef 0)
  store i32 %46, ptr %9, align 4
  %47 = load i32, ptr %9, align 4
  %48 = icmp ne i32 %47, 0
  br i1 %48, label %49, label %51

49:                                               ; preds = %38
  %50 = call zeroext i1 (ptr, ...) @SDL_SetError_REAL(ptr noundef @.str.1)
  store i1 %50, ptr %2, align 1
  store i32 1, ptr %10, align 4
  br label %62

51:                                               ; preds = %38
  %52 = load ptr, ptr %6, align 8
  %53 = getelementptr inbounds nuw %struct.SDL_WindowData, ptr %52, i32 0, i32 16
  %54 = load i8, ptr %53, align 2, !range !6, !noundef !7
  %55 = trunc i8 %54 to i1
  br i1 %55, label %56, label %61

56:                                               ; preds = %51
  %57 = load ptr, ptr %6, align 8
  %58 = getelementptr inbounds nuw %struct.SDL_WindowData, ptr %57, i32 0, i32 24
  %59 = load ptr, ptr %58, align 8
  %60 = getelementptr inbounds nuw %struct.SDL_VideoData, ptr %59, i32 0, i32 22
  store i8 1, ptr %60, align 8
  br label %61

61:                                               ; preds = %56, %51
  store i32 0, ptr %10, align 4
  br label %62

62:                                               ; preds = %61, %49
  call void @llvm.lifetime.end.p0(i64 4, ptr %9) #6
  call void @llvm.lifetime.end.p0(i64 8, ptr %8) #6
  call void @llvm.lifetime.end.p0(i64 4, ptr %7) #6
  %63 = load i32, ptr %10, align 4
  switch i32 %63, label %66 [
    i32 0, label %64
  ]

64:                                               ; preds = %62
  br label %65

65:                                               ; preds = %64, %23
  store i32 0, ptr %10, align 4
  br label %66

66:                                               ; preds = %65, %62
  call void @llvm.lifetime.end.p0(i64 8, ptr %6) #6
  %67 = load i32, ptr %10, align 4
  switch i32 %67, label %83 [
    i32 0, label %68
  ]

68:                                               ; preds = %66
  br label %79

69:                                               ; preds = %1
  %70 = load ptr, ptr %5, align 8
  %71 = icmp ne ptr %70, null
  br i1 %71, label %72, label %74

72:                                               ; preds = %69
  %73 = load ptr, ptr %5, align 8
  call void @SDL_UpdateWindowGrab(ptr noundef %73)
  br label %78

74:                                               ; preds = %69
  %75 = load ptr, ptr @X11_XUngrabPointer, align 8
  %76 = load ptr, ptr %4, align 8
  %77 = call i32 %75(ptr noundef %76, i64 noundef 0)
  br label %78

78:                                               ; preds = %74, %72
  br label %79

79:                                               ; preds = %78, %68
  %80 = load ptr, ptr @X11_XSync, align 8
  %81 = load ptr, ptr %4, align 8
  %82 = call i32 %80(ptr noundef %81, i32 noundef 0)
  store i1 true, ptr %2, align 1
  store i32 1, ptr %10, align 4
  br label %83

83:                                               ; preds = %79, %66
  call void @llvm.lifetime.end.p0(i64 8, ptr %5) #6
  call void @llvm.lifetime.end.p0(i64 8, ptr %4) #6
  %84 = load i1, ptr %2, align 1
  ret i1 %84
}