; Function Attrs: nounwind uwtable
define internal zeroext i1 @X11_CaptureMouse(ptr noundef readonly captures(address_is_null) %0) #0 {
  %2 = tail call ptr @SDL_GetVideoDevice() #5
  %3 = getelementptr inbounds nuw i8, ptr %2, i64 1656
  %4 = load ptr, ptr %3, align 8
  %5 = load ptr, ptr %4, align 8
  %6 = tail call ptr @SDL_GetMouseFocus_REAL() #5
  %.not = icmp eq ptr %0, null
  br i1 %.not, label %40, label %7

7:                                                ; preds = %1
  %8 = getelementptr inbounds nuw i8, ptr %0, i64 392
  %9 = load ptr, ptr %8, align 8
  %10 = getelementptr inbounds nuw i8, ptr %9, i64 116
  %11 = load i8, ptr %10, align 4, !range !8, !noundef !9
  %12 = trunc nuw i8 %11 to i1
  %13 = getelementptr inbounds nuw i8, ptr %9, i64 118
  %14 = load i8, ptr %13, align 2, !range !8
  br i1 %12, label %15, label %18

15:                                               ; preds = %7
  %16 = trunc nuw i8 %14 to i1
  br i1 %16, label %.thread30, label %.thread

.thread30:                                        ; preds = %15
  %17 = getelementptr inbounds nuw i8, ptr %9, i64 118
  br label %21

18:                                               ; preds = %7
  %19 = getelementptr inbounds nuw i8, ptr %9, i64 118
  %20 = trunc nuw i8 %14 to i1
  br i1 %20, label %21, label %._crit_edge27

._crit_edge27:                                    ; preds = %18
  %.phi.trans.insert28 = getelementptr inbounds nuw i8, ptr %9, i64 8
  %.pre29 = load i64, ptr %.phi.trans.insert28, align 8
  br label %25

21:                                               ; preds = %.thread30, %18
  %22 = phi ptr [ %17, %.thread30 ], [ %19, %18 ]
  %23 = getelementptr inbounds nuw i8, ptr %9, i64 8
  %24 = load i64, ptr %23, align 8
  br label %25

25:                                               ; preds = %._crit_edge27, %21
  %26 = phi ptr [ %22, %21 ], [ %19, %._crit_edge27 ]
  %27 = phi i64 [ %24, %21 ], [ %.pre29, %._crit_edge27 ]
  %28 = phi i64 [ %24, %21 ], [ 0, %._crit_edge27 ]
  %29 = load ptr, ptr @X11_XGrabPointer, align 8
  %30 = tail call i32 %29(ptr noundef %5, i64 noundef %27, i32 noundef 0, i32 noundef 2097228, i32 noundef 1, i32 noundef 1, i64 noundef %28, i64 noundef 0, i64 noundef 0) #5
  %.not24 = icmp eq i32 %30, 0
  br i1 %.not24, label %31, label %38

31:                                               ; preds = %25
  %32 = load i8, ptr %26, align 2, !range !8, !noundef !9
  %33 = trunc nuw i8 %32 to i1
  br i1 %33, label %34, label %.thread

34:                                               ; preds = %31
  %35 = getelementptr inbounds nuw i8, ptr %9, i64 336
  %36 = load ptr, ptr %35, align 8
  %37 = getelementptr inbounds nuw i8, ptr %36, i64 1656
  store i8 1, ptr %37, align 8
  br label %.thread

38:                                               ; preds = %25
  %39 = tail call zeroext i1 (ptr, ...) @SDL_SetError_REAL(ptr noundef nonnull @.str.1) #5
  br label %47

40:                                               ; preds = %1
  %.not23 = icmp eq ptr %6, null
  br i1 %.not23, label %42, label %41

41:                                               ; preds = %40
  tail call void @SDL_UpdateWindowGrab(ptr noundef nonnull %6) #5
  br label %.thread

42:                                               ; preds = %40
  %43 = load ptr, ptr @X11_XUngrabPointer, align 8
  %44 = tail call i32 %43(ptr noundef %5, i64 noundef 0) #5
  br label %.thread

.thread:                                          ; preds = %34, %31, %15, %41, %42
  %45 = load ptr, ptr @X11_XSync, align 8
  %46 = tail call i32 %45(ptr noundef %5, i32 noundef 0) #5
  br label %47

47:                                               ; preds = %38, %.thread
  %.3 = phi i1 [ true, %.thread ], [ %39, %38 ]
  ret i1 %.3
}